; ModuleID = 'source-C-CXX/12/501.cpp'
source_filename = "source-C-CXX/12/501.cpp"
target datalayout = "e-m:e-p270:32:32-p271:32:32-p272:64:64-i64:64-f80:128-n8:16:32:64-S128"
target triple = "x86_64-pc-linux-gnu"

%"class.std::ios_base::Init" = type { i8 }
%"class.std::basic_istream" = type { i32 (...)**, i64, %"class.std::basic_ios" }
%"class.std::basic_ios" = type { %"class.std::ios_base", %"class.std::basic_ostream"*, i8, i8, %"class.std::basic_streambuf"*, %"class.std::ctype"*, %"class.std::num_put"*, %"class.std::num_get"* }
%"class.std::ios_base" = type { i32 (...)**, i64, i64, i32, i32, i32, %"struct.std::ios_base::_Callback_list"*, %"struct.std::ios_base::_Words", [8 x %"struct.std::ios_base::_Words"], i32, %"struct.std::ios_base::_Words"*, %"class.std::locale" }
%"struct.std::ios_base::_Callback_list" = type { %"struct.std::ios_base::_Callback_list"*, void (i32, %"class.std::ios_base"*, i32)*, i32, i32 }
%"struct.std::ios_base::_Words" = type { i8*, i64 }
%"class.std::locale" = type { %"class.std::locale::_Impl"* }
%"class.std::locale::_Impl" = type { i32, %"class.std::locale::facet"**, i64, %"class.std::locale::facet"**, i8** }
%"class.std::locale::facet" = type <{ i32 (...)**, i32, [4 x i8] }>
%"class.std::basic_ostream" = type { i32 (...)**, %"class.std::basic_ios" }
%"class.std::basic_streambuf" = type { i32 (...)**, i8*, i8*, i8*, i8*, i8*, i8*, %"class.std::locale" }
%"class.std::ctype" = type <{ %"class.std::locale::facet.base", [4 x i8], %struct.__locale_struct*, i8, [7 x i8], i32*, i32*, i16*, i8, [256 x i8], [256 x i8], i8, [6 x i8] }>
%"class.std::locale::facet.base" = type <{ i32 (...)**, i32 }>
%struct.__locale_struct = type { [13 x %struct.__locale_data*], i16*, i32*, i32*, [13 x i8*] }
%struct.__locale_data = type opaque
%"class.std::num_put" = type { %"class.std::locale::facet.base", [4 x i8] }
%"class.std::num_get" = type { %"class.std::locale::facet.base", [4 x i8] }

@_ZStL8__ioinit = internal global %"class.std::ios_base::Init" zeroinitializer, align 1
@__dso_handle = external hidden global i8
@_ZSt3cin = external global %"class.std::basic_istream", align 8
@_ZSt4cout = external global %"class.std::basic_ostream", align 8
@.str = private unnamed_addr constant [2 x i8] c" \00", align 1
@llvm.global_ctors = appending global [1 x { i32, void ()*, i8* }] [{ i32, void ()*, i8* } { i32 65535, void ()* @_GLOBAL__sub_I_501.cpp, i8* null }]

declare void @_ZNSt8ios_base4InitC1Ev(%"class.std::ios_base::Init"* nonnull align 1 dereferenceable(1)) unnamed_addr #0

; Function Attrs: nounwind
declare void @_ZNSt8ios_base4InitD1Ev(%"class.std::ios_base::Init"* nonnull align 1 dereferenceable(1)) unnamed_addr #1

; Function Attrs: nofree nounwind
declare i32 @__cxa_atexit(void (i8*)*, i8*, i8*) local_unnamed_addr #2

; Function Attrs: mustprogress norecurse sspstrong uwtable
define dso_local i32 @main() local_unnamed_addr #3 {
  %1 = alloca i32, align 4
  %2 = alloca [1000000 x i32], align 16
  %3 = bitcast i32* %1 to i8*
  call void @llvm.lifetime.start.p0i8(i64 4, i8* nonnull %3) #6
  %4 = bitcast [1000000 x i32]* %2 to i8*
  call void @llvm.lifetime.start.p0i8(i64 4000000, i8* nonnull %4) #6
  %5 = call nonnull align 8 dereferenceable(16) %"class.std::basic_istream"* @_ZNSirsERi(%"class.std::basic_istream"* nonnull align 8 dereferenceable(16) @_ZSt3cin, i32* nonnull align 4 dereferenceable(4) %1)
  %6 = load i32, i32* %1, align 4, !tbaa !5
  %7 = icmp sgt i32 %6, 0
  br i1 %7, label %14, label %25

8:                                                ; preds = %14
  %9 = icmp sgt i32 %19, 0
  br i1 %9, label %10, label %25

10:                                               ; preds = %8
  %11 = zext i32 %19 to i64
  %12 = zext i32 %19 to i64
  %13 = add nsw i64 %12, -2
  br label %31

14:                                               ; preds = %0, %14
  %15 = phi i64 [ %18, %14 ], [ 0, %0 ]
  %16 = getelementptr inbounds [1000000 x i32], [1000000 x i32]* %2, i64 0, i64 %15
  %17 = call nonnull align 8 dereferenceable(16) %"class.std::basic_istream"* @_ZNSirsERi(%"class.std::basic_istream"* nonnull align 8 dereferenceable(16) @_ZSt3cin, i32* nonnull align 4 dereferenceable(4) %16)
  %18 = add nuw nsw i64 %15, 1
  %19 = load i32, i32* %1, align 4, !tbaa !5
  %20 = sext i32 %19 to i64
  %21 = icmp slt i64 %18, %20
  br i1 %21, label %14, label %8, !llvm.loop !9

22:                                               ; preds = %50, %84, %31
  %23 = add nuw nsw i64 %33, 1
  %24 = icmp eq i64 %34, %12
  br i1 %24, label %25, label %31, !llvm.loop !11

25:                                               ; preds = %22, %0, %8
  %26 = getelementptr inbounds [1000000 x i32], [1000000 x i32]* %2, i64 0, i64 0
  %27 = load i32, i32* %26, align 16, !tbaa !5
  %28 = call nonnull align 8 dereferenceable(8) %"class.std::basic_ostream"* @_ZNSolsEi(%"class.std::basic_ostream"* nonnull align 8 dereferenceable(8) @_ZSt4cout, i32 %27)
  %29 = load i32, i32* %1, align 4, !tbaa !5
  %30 = icmp sgt i32 %29, 1
  br i1 %30, label %67, label %66

31:                                               ; preds = %10, %22
  %32 = phi i64 [ 0, %10 ], [ %34, %22 ]
  %33 = phi i64 [ 1, %10 ], [ %23, %22 ]
  %34 = add nuw nsw i64 %32, 1
  %35 = getelementptr inbounds [1000000 x i32], [1000000 x i32]* %2, i64 0, i64 %32
  %36 = icmp ult i64 %34, %11
  br i1 %36, label %37, label %22

37:                                               ; preds = %31
  %38 = xor i64 %32, -1
  %39 = add nsw i64 %38, %12
  %40 = and i64 %39, 1
  %41 = icmp eq i64 %40, 0
  br i1 %41, label %50, label %42

42:                                               ; preds = %37
  %43 = load i32, i32* %35, align 4, !tbaa !5
  %44 = getelementptr inbounds [1000000 x i32], [1000000 x i32]* %2, i64 0, i64 %33
  %45 = load i32, i32* %44, align 4, !tbaa !5
  %46 = icmp eq i32 %43, %45
  br i1 %46, label %47, label %48

47:                                               ; preds = %42
  store i32 0, i32* %44, align 4, !tbaa !5
  br label %48

48:                                               ; preds = %47, %42
  %49 = add nuw nsw i64 %33, 1
  br label %50

50:                                               ; preds = %48, %37
  %51 = phi i64 [ %49, %48 ], [ %33, %37 ]
  %52 = icmp eq i64 %13, %32
  br i1 %52, label %22, label %53

53:                                               ; preds = %50, %84
  %54 = phi i64 [ %85, %84 ], [ %51, %50 ]
  %55 = load i32, i32* %35, align 4, !tbaa !5
  %56 = getelementptr inbounds [1000000 x i32], [1000000 x i32]* %2, i64 0, i64 %54
  %57 = load i32, i32* %56, align 4, !tbaa !5
  %58 = icmp eq i32 %55, %57
  br i1 %58, label %59, label %60

59:                                               ; preds = %53
  store i32 0, i32* %56, align 4, !tbaa !5
  br label %60

60:                                               ; preds = %53, %59
  %61 = add nuw nsw i64 %54, 1
  %62 = load i32, i32* %35, align 4, !tbaa !5
  %63 = getelementptr inbounds [1000000 x i32], [1000000 x i32]* %2, i64 0, i64 %61
  %64 = load i32, i32* %63, align 4, !tbaa !5
  %65 = icmp eq i32 %62, %64
  br i1 %65, label %83, label %84

66:                                               ; preds = %78, %25
  call void @llvm.lifetime.end.p0i8(i64 4000000, i8* nonnull %4) #6
  call void @llvm.lifetime.end.p0i8(i64 4, i8* nonnull %3) #6
  ret i32 0

67:                                               ; preds = %25, %78
  %68 = phi i32 [ %79, %78 ], [ %29, %25 ]
  %69 = phi i64 [ %80, %78 ], [ 1, %25 ]
  %70 = getelementptr inbounds [1000000 x i32], [1000000 x i32]* %2, i64 0, i64 %69
  %71 = load i32, i32* %70, align 4, !tbaa !5
  %72 = icmp eq i32 %71, 0
  br i1 %72, label %78, label %73

73:                                               ; preds = %67
  %74 = call nonnull align 8 dereferenceable(8) %"class.std::basic_ostream"* @_ZSt16__ostream_insertIcSt11char_traitsIcEERSt13basic_ostreamIT_T0_ES6_PKS3_l(%"class.std::basic_ostream"* nonnull align 8 dereferenceable(8) @_ZSt4cout, i8* nonnull getelementptr inbounds ([2 x i8], [2 x i8]* @.str, i64 0, i64 0), i64 1)
  %75 = load i32, i32* %70, align 4, !tbaa !5
  %76 = call nonnull align 8 dereferenceable(8) %"class.std::basic_ostream"* @_ZNSolsEi(%"class.std::basic_ostream"* nonnull align 8 dereferenceable(8) @_ZSt4cout, i32 %75)
  %77 = load i32, i32* %1, align 4, !tbaa !5
  br label %78

78:                                               ; preds = %67, %73
  %79 = phi i32 [ %68, %67 ], [ %77, %73 ]
  %80 = add nuw nsw i64 %69, 1
  %81 = sext i32 %79 to i64
  %82 = icmp slt i64 %80, %81
  br i1 %82, label %67, label %66, !llvm.loop !12

83:                                               ; preds = %60
  store i32 0, i32* %63, align 4, !tbaa !5
  br label %84

84:                                               ; preds = %83, %60
  %85 = add nuw nsw i64 %54, 2
  %86 = icmp eq i64 %85, %12
  br i1 %86, label %22, label %53, !llvm.loop !13
}

; Function Attrs: argmemonly mustprogress nofree nosync nounwind willreturn
declare void @llvm.lifetime.start.p0i8(i64 immarg, i8* nocapture) #4

declare nonnull align 8 dereferenceable(16) %"class.std::basic_istream"* @_ZNSirsERi(%"class.std::basic_istream"* nonnull align 8 dereferenceable(16), i32* nonnull align 4 dereferenceable(4)) local_unnamed_addr #0

; Function Attrs: argmemonly mustprogress nofree nosync nounwind willreturn
declare void @llvm.lifetime.end.p0i8(i64 immarg, i8* nocapture) #4

declare nonnull align 8 dereferenceable(8) %"class.std::basic_ostream"* @_ZNSolsEi(%"class.std::basic_ostream"* nonnull align 8 dereferenceable(8), i32) local_unnamed_addr #0

declare nonnull align 8 dereferenceable(8) %"class.std::basic_ostream"* @_ZSt16__ostream_insertIcSt11char_traitsIcEERSt13basic_ostreamIT_T0_ES6_PKS3_l(%"class.std::basic_ostream"* nonnull align 8 dereferenceable(8), i8*, i64) local_unnamed_addr #0

; Function Attrs: sspstrong uwtable
define internal void @_GLOBAL__sub_I_501.cpp() #5 section ".text.startup" {
  tail call void @_ZNSt8ios_base4InitC1Ev(%"class.std::ios_base::Init"* nonnull align 1 dereferenceable(1) @_ZStL8__ioinit)
  %1 = tail call i32 @__cxa_atexit(void (i8*)* bitcast (void (%"class.std::ios_base::Init"*)* @_ZNSt8ios_base4InitD1Ev to void (i8*)*), i8* getelementptr inbounds (%"class.std::ios_base::Init", %"class.std::ios_base::Init"* @_ZStL8__ioinit, i64 0, i32 0), i8* nonnull @__dso_handle) #6
  ret void
}


!llvm.module.flags = !{!0, !1, !2, !3}
!llvm.ident = !{!4}

!0 = !{i32 1, !"wchar_size", i32 4}
!1 = !{i32 7, !"PIC Level", i32 2}
!2 = !{i32 7, !"PIE Level", i32 2}
!3 = !{i32 7, !"uwtable", i32 1}
!4 = !{!"clang version 13.0.0"}
!5 = !{!6, !6, i64 0}
!6 = !{!"int", !7, i64 0}
!7 = !{!"omnipotent char", !8, i64 0}
!8 = !{!"Simple C++ TBAA"}
!9 = distinct !{!9, !10}
!10 = !{!"llvm.loop.mustprogress"}
!11 = distinct !{!11, !10}
!12 = distinct !{!12, !10}
!13 = distinct !{!13, !10}
